; Function Attrs: mustprogress uwtable
define internal fastcc noundef zeroext i1 @_ZN9benchmark12_GLOBAL__N_111ParseDoubleERKNSt7__cxx1112basic_stringIcSt11char_traitsIcESaIcEEEPKcPd(ptr noundef nonnull readonly align 8 captures(none) dereferenceable(32) %0, ptr noundef nonnull %1, ptr noundef writeonly captures(none) %2) unnamed_addr #3 {
  %4 = alloca ptr, align 8
  call void @llvm.lifetime.start.p0(i64 8, ptr nonnull %4) #21
  store ptr null, ptr %4, align 8, !tbaa !23
  %5 = call double @strtod(ptr noundef nonnull %1, ptr noundef nonnull %4) #21
  %6 = load ptr, ptr %4, align 8, !tbaa !23
  %7 = load i8, ptr %6, align 1, !tbaa !13
  %.not = icmp eq i8 %7, 0
  br i1 %.not, label %18, label %8

8:                                                ; preds = %3
  %9 = load ptr, ptr %0, align 8, !tbaa !3
  %10 = getelementptr inbounds nuw i8, ptr %0, i64 8
  %11 = load i64, ptr %10, align 8, !tbaa !14
  %12 = tail call noundef nonnull align 8 dereferenceable(8) ptr @_ZSt16__ostream_insertIcSt11char_traitsIcEERSt13basic_ostreamIT_T0_ES6_PKS3_l(ptr noundef nonnull align 8 dereferenceable(8) @_ZSt4cerr, ptr noundef %9, i64 noundef %11)
  %13 = tail call noundef nonnull align 8 dereferenceable(8) ptr @_ZSt16__ostream_insertIcSt11char_traitsIcEERSt13basic_ostreamIT_T0_ES6_PKS3_l(ptr noundef nonnull align 8 dereferenceable(8) %12, ptr noundef nonnull @.str.12, i64 noundef 29)
  %14 = tail call noundef nonnull align 8 dereferenceable(8) ptr @_ZSt16__ostream_insertIcSt11char_traitsIcEERSt13basic_ostreamIT_T0_ES6_PKS3_l(ptr noundef nonnull align 8 dereferenceable(8) %12, ptr noundef nonnull @.str.8, i64 noundef 24)
  %15 = tail call noundef i64 @strlen(ptr noundef nonnull dereferenceable(1) %1) #21
  %16 = tail call noundef nonnull align 8 dereferenceable(8) ptr @_ZSt16__ostream_insertIcSt11char_traitsIcEERSt13basic_ostreamIT_T0_ES6_PKS3_l(ptr noundef nonnull align 8 dereferenceable(8) %12, ptr noundef nonnull %1, i64 noundef %15)
  %17 = tail call noundef nonnull align 8 dereferenceable(8) ptr @_ZSt16__ostream_insertIcSt11char_traitsIcEERSt13basic_ostreamIT_T0_ES6_PKS3_l(ptr noundef nonnull align 8 dereferenceable(8) %12, ptr noundef nonnull @.str.9, i64 noundef 3)
  br label %19

18:                                               ; preds = %3
  store double %5, ptr %2, align 8, !tbaa !24
  br label %19

19:                                               ; preds = %18, %8
  call void @llvm.lifetime.end.p0(i64 8, ptr nonnull %4) #21
  ret i1 %.not
}